target datalayout = "e-m:e-p270:32:32-p271:32:32-p272:64:64-i64:64-i128:128-f80:128-n8:16:32:64-S128"
target triple = "x86_64-pc-linux-gnu"

%struct.anon = type { ptr, ptr, i64, i64 }

@.str = private unnamed_addr constant [52 x i8] c"../openssl/providers/implementations/kdfs/x942kdf.c\00", align 1
@__func__.find_alg_id = private unnamed_addr constant [12 x i8] c"find_alg_id\00", align 1

; Function Attrs: nounwind uwtable
define internal i32 @find_alg_id(ptr noundef %0, ptr noundef %1, ptr noundef %2, ptr noundef %3) #0 {
  %5 = alloca ptr, align 8
  %6 = alloca ptr, align 8
  %7 = alloca ptr, align 8
  %8 = alloca ptr, align 8
  %9 = alloca i32, align 4
  %10 = alloca i64, align 8
  %11 = alloca ptr, align 8
  store ptr %0, ptr %5, align 8, !tbaa !37
  store ptr %1, ptr %6, align 8, !tbaa !31
  store ptr %2, ptr %7, align 8, !tbaa !31
  store ptr %3, ptr %8, align 8, !tbaa !48
  call void @llvm.lifetime.start.p0(i64 4, ptr %9) #6
  store i32 1, ptr %9, align 4, !tbaa !35
  call void @llvm.lifetime.start.p0(i64 8, ptr %10) #6
  call void @llvm.lifetime.start.p0(i64 8, ptr %11) #6
  %12 = load ptr, ptr %5, align 8, !tbaa !37
  %13 = load ptr, ptr %6, align 8, !tbaa !31
  %14 = load ptr, ptr %7, align 8, !tbaa !31
  %15 = call ptr @EVP_CIPHER_fetch(ptr noundef %12, ptr noundef %13, ptr noundef %14)
  store ptr %15, ptr %11, align 8, !tbaa !57
  %16 = load ptr, ptr %11, align 8, !tbaa !57
  %17 = icmp ne ptr %16, null
  br i1 %17, label %18, label %38

18:                                               ; preds = %4
  store i64 0, ptr %10, align 8, !tbaa !32
  br label %19

19:                                               ; preds = %34, %18
  %20 = load i64, ptr %10, align 8, !tbaa !32
  %21 = icmp ult i64 %20, 4
  br i1 %21, label %22, label %37

22:                                               ; preds = %19
  %23 = load ptr, ptr %11, align 8, !tbaa !57
  %24 = load i64, ptr %10, align 8, !tbaa !32
  %25 = getelementptr inbounds nuw [4 x %struct.anon], ptr @kek_algs, i64 0, i64 %24
  %26 = getelementptr inbounds nuw %struct.anon, ptr %25, i32 0, i32 0
  %27 = load ptr, ptr %26, align 16, !tbaa !59
  %28 = call i32 @EVP_CIPHER_is_a(ptr noundef %23, ptr noundef %27)
  %29 = icmp ne i32 %28, 0
  br i1 %29, label %30, label %33

30:                                               ; preds = %22
  %31 = load i64, ptr %10, align 8, !tbaa !32
  %32 = load ptr, ptr %8, align 8, !tbaa !48
  store i64 %31, ptr %32, align 8, !tbaa !32
  br label %39

33:                                               ; preds = %22
  br label %34

34:                                               ; preds = %33
  %35 = load i64, ptr %10, align 8, !tbaa !32
  %36 = add i64 %35, 1
  store i64 %36, ptr %10, align 8, !tbaa !32
  br label %19, !llvm.loop !60

37:                                               ; preds = %19
  br label %38

38:                                               ; preds = %37, %4
  store i32 0, ptr %9, align 4, !tbaa !35
  call void @ERR_new()
  call void @ERR_set_debug(ptr noundef @.str, i32 noundef 97, ptr noundef @__func__.find_alg_id)
  call void (i32, i32, ptr, ...) @ERR_set_error(i32 noundef 57, i32 noundef 145, ptr noundef null)
  br label %39

39:                                               ; preds = %38, %30
  %40 = load ptr, ptr %11, align 8, !tbaa !57
  call void @EVP_CIPHER_free(ptr noundef %40)
  %41 = load i32, ptr %9, align 4, !tbaa !35
  call void @llvm.lifetime.end.p0(i64 8, ptr %11) #6
  call void @llvm.lifetime.end.p0(i64 8, ptr %10) #6
  call void @llvm.lifetime.end.p0(i64 4, ptr %9) #6
  ret i32 %41
}