; Function Attrs: nounwind uwtable
define internal fastcc range(i32 0, 2) i32 @find_alg_id(ptr noundef %0, ptr noundef %1, ptr noundef %2, ptr noundef nonnull writeonly captures(none) %3) unnamed_addr #0 {
  %5 = tail call ptr @EVP_CIPHER_fetch(ptr noundef %0, ptr noundef %1, ptr noundef %2) #7
  %.not = icmp eq ptr %5, null
  br i1 %.not, label %.loopexit, label %.preheader

.preheader:                                       ; preds = %4, %10
  %.01115 = phi i64 [ %11, %10 ], [ 0, %4 ]
  %6 = getelementptr inbounds nuw [4 x %struct.anon], ptr @kek_algs, i64 0, i64 %.01115
  %7 = load ptr, ptr %6, align 16, !tbaa !42
  %8 = tail call i32 @EVP_CIPHER_is_a(ptr noundef nonnull %5, ptr noundef %7) #7
  %.not13 = icmp eq i32 %8, 0
  br i1 %.not13, label %10, label %9

9:                                                ; preds = %.preheader
  store i64 %.01115, ptr %3, align 8, !tbaa !31
  br label %12

10:                                               ; preds = %.preheader
  %11 = add nuw nsw i64 %.01115, 1
  %exitcond.not = icmp eq i64 %11, 4
  br i1 %exitcond.not, label %.loopexit, label %.preheader, !llvm.loop !43

.loopexit:                                        ; preds = %10, %4
  tail call void @ERR_new() #7
  tail call void @ERR_set_debug(ptr noundef nonnull @.str, i32 noundef 97, ptr noundef nonnull @__func__.find_alg_id) #7
  tail call void (i32, i32, ptr, ...) @ERR_set_error(i32 noundef 57, i32 noundef 145, ptr noundef null) #7
  br label %12

12:                                               ; preds = %.loopexit, %9
  %.0 = phi i32 [ 1, %9 ], [ 0, %.loopexit ]
  tail call void @EVP_CIPHER_free(ptr noundef %5) #7
  ret i32 %.0
}